target datalayout = "e-m:e-p270:32:32-p271:32:32-p272:64:64-i64:64-i128:128-f80:128-n8:16:32:64-S128"
target triple = "x86_64-pc-linux-gnu"

%struct.slurm_gres_context = type { ptr, i32, ptr, ptr, i32, ptr, ptr, %struct.slurm_gres_ops, i32, ptr, i64 }
%struct.slurm_gres_ops = type { ptr, ptr, ptr, ptr, ptr, ptr, ptr, ptr, ptr, ptr, ptr }
%struct.gres_slurmd_conf = type { i32, i64, i32, ptr, ptr, ptr, ptr, ptr, ptr, ptr, i32 }
%struct.foreach_gres_conf_t = type { ptr, i32, i32, i32 }

@.str.164 = private unnamed_addr constant [77 x i8] c"gres.conf for %s, some records have \22File\22 specification while others do not\00", align 1
@.str.165 = private unnamed_addr constant [78 x i8] c"gres.conf for %s, some records have \22Type=\22 specification while others do not\00", align 1
@.str.166 = private unnamed_addr constant [35 x i8] c"gres.conf duplicate records for %s\00", align 1

; Function Attrs: nounwind uwtable
define internal i32 @_foreach_gres_conf(ptr noundef %0, ptr noundef %1) #0 {
  %3 = alloca i32, align 4
  %4 = alloca ptr, align 8
  %5 = alloca ptr, align 8
  %6 = alloca ptr, align 8
  %7 = alloca ptr, align 8
  %8 = alloca ptr, align 8
  %9 = alloca i8, align 1
  %10 = alloca i8, align 1
  %11 = alloca i32, align 4
  store ptr %0, ptr %4, align 8
  store ptr %1, ptr %5, align 8
  call void @llvm.lifetime.start.p0(i64 8, ptr %6) #11
  %12 = load ptr, ptr %4, align 8
  store ptr %12, ptr %6, align 8
  call void @llvm.lifetime.start.p0(i64 8, ptr %7) #11
  %13 = load ptr, ptr %5, align 8
  store ptr %13, ptr %7, align 8
  call void @llvm.lifetime.start.p0(i64 8, ptr %8) #11
  %14 = load ptr, ptr %7, align 8
  %15 = getelementptr inbounds nuw %struct.foreach_gres_conf_t, ptr %14, i32 0, i32 0
  %16 = load ptr, ptr %15, align 8
  store ptr %16, ptr %8, align 8
  call void @llvm.lifetime.start.p0(i64 1, ptr %9) #11
  call void @llvm.lifetime.start.p0(i64 1, ptr %10) #11
  %17 = load ptr, ptr %6, align 8
  %18 = getelementptr inbounds nuw %struct.gres_slurmd_conf, ptr %17, i32 0, i32 10
  %19 = load i32, ptr %18, align 8
  %20 = load ptr, ptr %8, align 8
  %21 = getelementptr inbounds nuw %struct.slurm_gres_context, ptr %20, i32 0, i32 8
  %22 = load i32, ptr %21, align 8
  %23 = icmp ne i32 %19, %22
  br i1 %23, label %24, label %25

24:                                               ; preds = %2
  store i32 0, ptr %3, align 4
  store i32 1, ptr %11, align 4
  br label %230

25:                                               ; preds = %2
  %26 = load ptr, ptr %6, align 8
  %27 = getelementptr inbounds nuw %struct.gres_slurmd_conf, ptr %26, i32 0, i32 0
  %28 = load i32, ptr %27, align 8
  %29 = zext i32 %28 to i64
  %30 = and i64 %29, 4096
  %31 = icmp ne i64 %30, 0
  br i1 %31, label %32, label %39

32:                                               ; preds = %25
  %33 = load ptr, ptr %8, align 8
  %34 = getelementptr inbounds nuw %struct.slurm_gres_context, ptr %33, i32 0, i32 1
  %35 = load i32, ptr %34, align 8
  %36 = zext i32 %35 to i64
  %37 = or i64 %36, 4096
  %38 = trunc i64 %37 to i32
  store i32 %38, ptr %34, align 8
  br label %39

39:                                               ; preds = %32, %25
  %40 = load ptr, ptr %6, align 8
  %41 = getelementptr inbounds nuw %struct.gres_slurmd_conf, ptr %40, i32 0, i32 0
  %42 = load i32, ptr %41, align 8
  %43 = zext i32 %42 to i64
  %44 = and i64 %43, 8
  %45 = icmp ne i64 %44, 0
  br i1 %45, label %46, label %53

46:                                               ; preds = %39
  %47 = load ptr, ptr %8, align 8
  %48 = getelementptr inbounds nuw %struct.slurm_gres_context, ptr %47, i32 0, i32 1
  %49 = load i32, ptr %48, align 8
  %50 = zext i32 %49 to i64
  %51 = or i64 %50, 8
  %52 = trunc i64 %51 to i32
  store i32 %52, ptr %48, align 8
  br label %53

53:                                               ; preds = %46, %39
  %54 = load ptr, ptr %6, align 8
  %55 = getelementptr inbounds nuw %struct.gres_slurmd_conf, ptr %54, i32 0, i32 0
  %56 = load i32, ptr %55, align 8
  %57 = zext i32 %56 to i64
  %58 = and i64 %57, 2
  %59 = icmp ne i64 %58, 0
  br i1 %59, label %60, label %67

60:                                               ; preds = %53
  %61 = load ptr, ptr %8, align 8
  %62 = getelementptr inbounds nuw %struct.slurm_gres_context, ptr %61, i32 0, i32 1
  %63 = load i32, ptr %62, align 8
  %64 = zext i32 %63 to i64
  %65 = or i64 %64, 2
  %66 = trunc i64 %65 to i32
  store i32 %66, ptr %62, align 8
  br label %67

67:                                               ; preds = %60, %53
  %68 = load ptr, ptr %6, align 8
  %69 = getelementptr inbounds nuw %struct.gres_slurmd_conf, ptr %68, i32 0, i32 0
  %70 = load i32, ptr %69, align 8
  %71 = zext i32 %70 to i64
  %72 = and i64 %71, 1024
  %73 = icmp ne i64 %72, 0
  br i1 %73, label %74, label %81

74:                                               ; preds = %67
  %75 = load ptr, ptr %8, align 8
  %76 = getelementptr inbounds nuw %struct.slurm_gres_context, ptr %75, i32 0, i32 1
  %77 = load i32, ptr %76, align 8
  %78 = zext i32 %77 to i64
  %79 = or i64 %78, 1024
  %80 = trunc i64 %79 to i32
  store i32 %80, ptr %76, align 8
  br label %81

81:                                               ; preds = %74, %67
  %82 = load ptr, ptr %8, align 8
  %83 = getelementptr inbounds nuw %struct.slurm_gres_context, ptr %82, i32 0, i32 1
  %84 = load i32, ptr %83, align 8
  %85 = zext i32 %84 to i64
  %86 = and i64 %85, 16
  %87 = icmp ne i64 %86, 0
  br i1 %87, label %100, label %88

88:                                               ; preds = %81
  %89 = load ptr, ptr %8, align 8
  %90 = call i32 @_load_plugin(ptr noundef %89)
  %91 = icmp eq i32 %90, 0
  br i1 %91, label %92, label %99

92:                                               ; preds = %88
  %93 = load ptr, ptr %8, align 8
  %94 = getelementptr inbounds nuw %struct.slurm_gres_context, ptr %93, i32 0, i32 1
  %95 = load i32, ptr %94, align 8
  %96 = zext i32 %95 to i64
  %97 = or i64 %96, 16
  %98 = trunc i64 %97 to i32
  store i32 %98, ptr %94, align 8
  br label %99

99:                                               ; preds = %92, %88
  br label %100

100:                                              ; preds = %99, %81
  %101 = load ptr, ptr %7, align 8
  %102 = getelementptr inbounds nuw %struct.foreach_gres_conf_t, ptr %101, i32 0, i32 3
  %103 = load i32, ptr %102, align 8
  %104 = add nsw i32 %103, 1
  store i32 %104, ptr %102, align 8
  %105 = load ptr, ptr %6, align 8
  %106 = getelementptr inbounds nuw %struct.gres_slurmd_conf, ptr %105, i32 0, i32 0
  %107 = load i32, ptr %106, align 8
  %108 = zext i32 %107 to i64
  %109 = and i64 %108, 2
  %110 = icmp ne i64 %109, 0
  %111 = zext i1 %110 to i8
  store i8 %111, ptr %9, align 1
  %112 = load ptr, ptr %7, align 8
  %113 = getelementptr inbounds nuw %struct.foreach_gres_conf_t, ptr %112, i32 0, i32 1
  %114 = load i32, ptr %113, align 8
  %115 = icmp eq i32 %114, -1
  br i1 %115, label %116, label %130

116:                                              ; preds = %100
  %117 = load ptr, ptr %6, align 8
  %118 = getelementptr inbounds nuw %struct.gres_slurmd_conf, ptr %117, i32 0, i32 0
  %119 = load i32, ptr %118, align 8
  %120 = zext i32 %119 to i64
  %121 = and i64 %120, 2
  %122 = icmp ne i64 %121, 0
  br i1 %122, label %123, label %126

123:                                              ; preds = %116
  %124 = load ptr, ptr %7, align 8
  %125 = getelementptr inbounds nuw %struct.foreach_gres_conf_t, ptr %124, i32 0, i32 1
  store i32 1, ptr %125, align 8
  br label %129

126:                                              ; preds = %116
  %127 = load ptr, ptr %7, align 8
  %128 = getelementptr inbounds nuw %struct.foreach_gres_conf_t, ptr %127, i32 0, i32 1
  store i32 0, ptr %128, align 8
  br label %129

129:                                              ; preds = %126, %123
  br label %151

130:                                              ; preds = %100
  %131 = load ptr, ptr %7, align 8
  %132 = getelementptr inbounds nuw %struct.foreach_gres_conf_t, ptr %131, i32 0, i32 1
  %133 = load i32, ptr %132, align 8
  %134 = icmp ne i32 %133, 0
  br i1 %134, label %135, label %138

135:                                              ; preds = %130
  %136 = load i8, ptr %9, align 1, !range !8, !noundef !9
  %137 = trunc i8 %136 to i1
  br i1 %137, label %138, label %146

138:                                              ; preds = %135, %130
  %139 = load ptr, ptr %7, align 8
  %140 = getelementptr inbounds nuw %struct.foreach_gres_conf_t, ptr %139, i32 0, i32 1
  %141 = load i32, ptr %140, align 8
  %142 = icmp ne i32 %141, 0
  br i1 %142, label %150, label %143

143:                                              ; preds = %138
  %144 = load i8, ptr %9, align 1, !range !8, !noundef !9
  %145 = trunc i8 %144 to i1
  br i1 %145, label %146, label %150

146:                                              ; preds = %143, %135
  %147 = load ptr, ptr %8, align 8
  %148 = getelementptr inbounds nuw %struct.slurm_gres_context, ptr %147, i32 0, i32 2
  %149 = load ptr, ptr %148, align 8
  call void (ptr, ...) @fatal(ptr noundef @.str.164, ptr noundef %149) #13
  unreachable

150:                                              ; preds = %143, %138
  br label %151

151:                                              ; preds = %150, %129
  %152 = load ptr, ptr %6, align 8
  %153 = getelementptr inbounds nuw %struct.gres_slurmd_conf, ptr %152, i32 0, i32 0
  %154 = load i32, ptr %153, align 8
  %155 = zext i32 %154 to i64
  %156 = and i64 %155, 4
  %157 = icmp ne i64 %156, 0
  %158 = zext i1 %157 to i8
  store i8 %158, ptr %10, align 1
  %159 = load ptr, ptr %7, align 8
  %160 = getelementptr inbounds nuw %struct.foreach_gres_conf_t, ptr %159, i32 0, i32 2
  %161 = load i32, ptr %160, align 4
  %162 = icmp eq i32 %161, -1
  br i1 %162, label %163, label %177

163:                                              ; preds = %151
  %164 = load ptr, ptr %6, align 8
  %165 = getelementptr inbounds nuw %struct.gres_slurmd_conf, ptr %164, i32 0, i32 0
  %166 = load i32, ptr %165, align 8
  %167 = zext i32 %166 to i64
  %168 = and i64 %167, 4
  %169 = icmp ne i64 %168, 0
  br i1 %169, label %170, label %173

170:                                              ; preds = %163
  %171 = load ptr, ptr %7, align 8
  %172 = getelementptr inbounds nuw %struct.foreach_gres_conf_t, ptr %171, i32 0, i32 2
  store i32 1, ptr %172, align 4
  br label %176

173:                                              ; preds = %163
  %174 = load ptr, ptr %7, align 8
  %175 = getelementptr inbounds nuw %struct.foreach_gres_conf_t, ptr %174, i32 0, i32 2
  store i32 0, ptr %175, align 4
  br label %176

176:                                              ; preds = %173, %170
  br label %198

177:                                              ; preds = %151
  %178 = load ptr, ptr %7, align 8
  %179 = getelementptr inbounds nuw %struct.foreach_gres_conf_t, ptr %178, i32 0, i32 2
  %180 = load i32, ptr %179, align 4
  %181 = icmp ne i32 %180, 0
  br i1 %181, label %182, label %185

182:                                              ; preds = %177
  %183 = load i8, ptr %10, align 1, !range !8, !noundef !9
  %184 = trunc i8 %183 to i1
  br i1 %184, label %185, label %193

185:                                              ; preds = %182, %177
  %186 = load ptr, ptr %7, align 8
  %187 = getelementptr inbounds nuw %struct.foreach_gres_conf_t, ptr %186, i32 0, i32 2
  %188 = load i32, ptr %187, align 4
  %189 = icmp ne i32 %188, 0
  br i1 %189, label %197, label %190

190:                                              ; preds = %185
  %191 = load i8, ptr %10, align 1, !range !8, !noundef !9
  %192 = trunc i8 %191 to i1
  br i1 %192, label %193, label %197

193:                                              ; preds = %190, %182
  %194 = load ptr, ptr %8, align 8
  %195 = getelementptr inbounds nuw %struct.slurm_gres_context, ptr %194, i32 0, i32 2
  %196 = load ptr, ptr %195, align 8
  call void (ptr, ...) @fatal(ptr noundef @.str.165, ptr noundef %196) #13
  unreachable

197:                                              ; preds = %190, %185
  br label %198

198:                                              ; preds = %197, %176
  %199 = load ptr, ptr %7, align 8
  %200 = getelementptr inbounds nuw %struct.foreach_gres_conf_t, ptr %199, i32 0, i32 1
  %201 = load i32, ptr %200, align 8
  %202 = icmp ne i32 %201, 0
  br i1 %202, label %217, label %203

203:                                              ; preds = %198
  %204 = load ptr, ptr %7, align 8
  %205 = getelementptr inbounds nuw %struct.foreach_gres_conf_t, ptr %204, i32 0, i32 2
  %206 = load i32, ptr %205, align 4
  %207 = icmp ne i32 %206, 0
  br i1 %207, label %217, label %208

208:                                              ; preds = %203
  %209 = load ptr, ptr %7, align 8
  %210 = getelementptr inbounds nuw %struct.foreach_gres_conf_t, ptr %209, i32 0, i32 3
  %211 = load i32, ptr %210, align 8
  %212 = icmp sgt i32 %211, 1
  br i1 %212, label %213, label %217

213:                                              ; preds = %208
  %214 = load ptr, ptr %8, align 8
  %215 = getelementptr inbounds nuw %struct.slurm_gres_context, ptr %214, i32 0, i32 2
  %216 = load ptr, ptr %215, align 8
  call void (ptr, ...) @fatal(ptr noundef @.str.166, ptr noundef %216) #13
  unreachable

217:                                              ; preds = %208, %203, %198
  %218 = load ptr, ptr %7, align 8
  %219 = getelementptr inbounds nuw %struct.foreach_gres_conf_t, ptr %218, i32 0, i32 1
  %220 = load i32, ptr %219, align 8
  %221 = icmp ne i32 %220, 0
  br i1 %221, label %222, label %229

222:                                              ; preds = %217
  %223 = load ptr, ptr %8, align 8
  %224 = getelementptr inbounds nuw %struct.slurm_gres_context, ptr %223, i32 0, i32 1
  %225 = load i32, ptr %224, align 8
  %226 = zext i32 %225 to i64
  %227 = or i64 %226, 2
  %228 = trunc i64 %227 to i32
  store i32 %228, ptr %224, align 8
  br label %229

229:                                              ; preds = %222, %217
  store i32 0, ptr %3, align 4
  store i32 1, ptr %11, align 4
  br label %230

230:                                              ; preds = %229, %24
  call void @llvm.lifetime.end.p0(i64 1, ptr %10) #11
  call void @llvm.lifetime.end.p0(i64 1, ptr %9) #11
  call void @llvm.lifetime.end.p0(i64 8, ptr %8) #11
  call void @llvm.lifetime.end.p0(i64 8, ptr %7) #11
  call void @llvm.lifetime.end.p0(i64 8, ptr %6) #11
  %231 = load i32, ptr %3, align 4
  ret i32 %231
}