; Function Attrs: nounwind uwtable
define internal noundef i32 @_foreach_gres_conf(ptr noundef readonly captures(none) %0, ptr noundef captures(none) %1) #2 {
  %3 = load ptr, ptr %1, align 8
  %4 = getelementptr inbounds nuw i8, ptr %0, i64 80
  %5 = load i32, ptr %4, align 8
  %6 = getelementptr inbounds nuw i8, ptr %3, i64 144
  %7 = load i32, ptr %6, align 8
  %.not = icmp eq i32 %5, %7
  br i1 %.not, label %8, label %.thread66

8:                                                ; preds = %2
  %9 = load i32, ptr %0, align 8
  %10 = and i32 %9, 4096
  %.not44 = icmp eq i32 %10, 0
  br i1 %.not44, label %15, label %11

11:                                               ; preds = %8
  %12 = getelementptr inbounds nuw i8, ptr %3, i64 8
  %13 = load i32, ptr %12, align 8
  %14 = or i32 %13, 4096
  store i32 %14, ptr %12, align 8
  %.pre = load i32, ptr %0, align 8
  br label %15

15:                                               ; preds = %11, %8
  %16 = phi i32 [ %.pre, %11 ], [ %9, %8 ]
  %17 = and i32 %16, 8
  %.not45 = icmp eq i32 %17, 0
  br i1 %.not45, label %22, label %18

18:                                               ; preds = %15
  %19 = getelementptr inbounds nuw i8, ptr %3, i64 8
  %20 = load i32, ptr %19, align 8
  %21 = or i32 %20, 8
  store i32 %21, ptr %19, align 8
  %.pre67 = load i32, ptr %0, align 8
  br label %22

22:                                               ; preds = %18, %15
  %23 = phi i32 [ %.pre67, %18 ], [ %16, %15 ]
  %24 = and i32 %23, 2
  %.not46 = icmp eq i32 %24, 0
  br i1 %.not46, label %29, label %25

25:                                               ; preds = %22
  %26 = getelementptr inbounds nuw i8, ptr %3, i64 8
  %27 = load i32, ptr %26, align 8
  %28 = or i32 %27, 2
  store i32 %28, ptr %26, align 8
  %.pre68 = load i32, ptr %0, align 8
  br label %29

29:                                               ; preds = %25, %22
  %30 = phi i32 [ %.pre68, %25 ], [ %23, %22 ]
  %31 = and i32 %30, 1024
  %.not47 = icmp eq i32 %31, 0
  %.phi.trans.insert = getelementptr inbounds nuw i8, ptr %3, i64 8
  %.pre69 = load i32, ptr %.phi.trans.insert, align 8
  br i1 %.not47, label %._crit_edge, label %32

32:                                               ; preds = %29
  %33 = or i32 %.pre69, 1024
  store i32 %33, ptr %.phi.trans.insert, align 8
  br label %._crit_edge

._crit_edge:                                      ; preds = %29, %32
  %34 = phi i32 [ %33, %32 ], [ %.pre69, %29 ]
  %35 = getelementptr inbounds nuw i8, ptr %3, i64 8
  %36 = and i32 %34, 16
  %.not48 = icmp eq i32 %36, 0
  br i1 %.not48, label %37, label %43

37:                                               ; preds = %._crit_edge
  %38 = tail call fastcc i32 @_load_plugin(ptr noundef nonnull %3)
  %39 = icmp eq i32 %38, 0
  br i1 %39, label %40, label %43

40:                                               ; preds = %37
  %41 = load i32, ptr %35, align 8
  %42 = or i32 %41, 16
  store i32 %42, ptr %35, align 8
  br label %43

43:                                               ; preds = %37, %40, %._crit_edge
  %44 = getelementptr inbounds nuw i8, ptr %1, i64 16
  %45 = load i32, ptr %44, align 8
  %46 = add nsw i32 %45, 1
  store i32 %46, ptr %44, align 8
  %47 = load i32, ptr %0, align 8
  %48 = and i32 %47, 2
  %.not49.not = icmp eq i32 %48, 0
  %49 = getelementptr inbounds nuw i8, ptr %1, i64 8
  %50 = load i32, ptr %49, align 8
  switch i32 %50, label %51 [
    i32 -1, label %.thread.sink.split
    i32 0, label %52
  ]

.thread.sink.split:                               ; preds = %43
  %.lobit = lshr exact i32 %48, 1
  store i32 %.lobit, ptr %49, align 8
  br label %.thread

51:                                               ; preds = %43
  br i1 %.not49.not, label %53, label %.thread

52:                                               ; preds = %43
  br i1 %.not49.not, label %.thread, label %53

53:                                               ; preds = %52, %51
  %54 = getelementptr inbounds nuw i8, ptr %3, i64 16
  %55 = load ptr, ptr %54, align 8
  tail call void (ptr, ...) @fatal(ptr noundef nonnull @.str.164, ptr noundef %55) #30
  unreachable

.thread:                                          ; preds = %.thread.sink.split, %51, %52
  %56 = phi i32 [ %50, %51 ], [ 0, %52 ], [ %.lobit, %.thread.sink.split ]
  %57 = load i32, ptr %0, align 8
  %58 = and i32 %57, 4
  %.not52.not = icmp eq i32 %58, 0
  %59 = getelementptr inbounds nuw i8, ptr %1, i64 12
  %60 = load i32, ptr %59, align 4
  switch i32 %60, label %61 [
    i32 -1, label %.thread62.sink.split
    i32 0, label %62
  ]

.thread62.sink.split:                             ; preds = %.thread
  %.lobit73 = lshr exact i32 %58, 2
  store i32 %.lobit73, ptr %59, align 4
  br label %.thread62

61:                                               ; preds = %.thread
  br i1 %.not52.not, label %63, label %.thread62

62:                                               ; preds = %.thread
  br i1 %.not52.not, label %.thread62, label %63

63:                                               ; preds = %62, %61
  %64 = getelementptr inbounds nuw i8, ptr %3, i64 16
  %65 = load ptr, ptr %64, align 8
  tail call void (ptr, ...) @fatal(ptr noundef nonnull @.str.165, ptr noundef %65) #30
  unreachable

.thread62:                                        ; preds = %.thread62.sink.split, %61, %62
  %66 = phi i32 [ %60, %61 ], [ 0, %62 ], [ %.lobit73, %.thread62.sink.split ]
  %.not55 = icmp eq i32 %56, 0
  br i1 %.not55, label %67, label %72

67:                                               ; preds = %.thread62
  %.not56 = icmp eq i32 %66, 0
  %68 = icmp sgt i32 %45, 0
  %or.cond = select i1 %.not56, i1 %68, i1 false
  br i1 %or.cond, label %69, label %.thread66

69:                                               ; preds = %67
  %70 = getelementptr inbounds nuw i8, ptr %3, i64 16
  %71 = load ptr, ptr %70, align 8
  tail call void (ptr, ...) @fatal(ptr noundef nonnull @.str.166, ptr noundef %71) #30
  unreachable

72:                                               ; preds = %.thread62
  %73 = load i32, ptr %35, align 8
  %74 = or i32 %73, 2
  store i32 %74, ptr %35, align 8
  br label %.thread66

.thread66:                                        ; preds = %67, %72, %2
  ret i32 0
}